target datalayout = "e-m:e-p270:32:32-p271:32:32-p272:64:64-i64:64-i128:128-f80:128-n8:16:32:64-S128"
target triple = "x86_64-pc-linux-gnu"

%struct._value_string_ext = type { ptr, i32, i32, ptr, ptr }
%struct._packet_info = type { ptr, ptr, i32, i32, %struct.nstime_t, %struct.nstime_t, %struct.nstime_t, i8, ptr, ptr, ptr, ptr, %struct._address, %struct._address, %struct._address, %struct._address, %struct._address, %struct._address, i32, ptr, i8, [3 x i8], %struct.anon, i32, i32, i32, i32, ptr, i8, ptr, ptr, i16, i16, i32, i32, i16, i32, i32, ptr, ptr, ptr, i8, i8, i16, i16, i16, i32, i16, i16, ptr, ptr, ptr, ptr, ptr, i32, i32 }
%struct.nstime_t = type { i64, i32 }
%struct._address = type { i32, i32, ptr, ptr }
%struct.anon = type { i8, [3 x i8] }

@hf_btbnep_control_type = internal global i32 0, align 4
@hf_btbnep_unknown_control_type = internal global i32 0, align 4
@hf_btbnep_uuid_size = internal global i32 0, align 4
@hf_btbnep_destination_service_uuid = internal global i32 0, align 4
@hf_btbnep_source_service_uuid = internal global i32 0, align 4
@hf_btbnep_setup_connection_response_message = internal global i32 0, align 4
@hf_btbnep_filter_net_type_response_message = internal global i32 0, align 4
@hf_btbnep_filter_multi_addr_response_message = internal global i32 0, align 4
@hf_btbnep_list_length = internal global i32 0, align 4
@hf_btbnep_network_type_start = internal global i32 0, align 4
@hf_btbnep_network_type_end = internal global i32 0, align 4
@hf_btbnep_multicast_address_start = internal global i32 0, align 4
@hf_btbnep_multicast_address_end = internal global i32 0, align 4
@.str.114 = private unnamed_addr constant [13 x i8] c"Unknown type\00", align 1
@.str.119 = private unnamed_addr constant [6 x i8] c" - %s\00", align 1
@.str.120 = private unnamed_addr constant [15 x i8] c" - Unknown(%s)\00", align 1
@.str.121 = private unnamed_addr constant [6 x i8] c" (%s)\00", align 1
@bluetooth_uuid_vals_ext = external global %struct._value_string_ext, align 8
@.str.122 = private unnamed_addr constant [13 x i8] c"Unknown uuid\00", align 1
@.str.123 = private unnamed_addr constant [24 x i8] c" - dst: <%s>, src: <%s>\00", align 1
@.str.124 = private unnamed_addr constant [25 x i8] c"Unknown response message\00", align 1

; Function Attrs: null_pointer_is_valid sspstrong uwtable
define internal i32 @dissect_control(ptr noundef %0, ptr noundef %1, ptr noundef %2, i32 noundef %3) #0 {
  %5 = alloca ptr, align 8
  %6 = alloca ptr, align 8
  %7 = alloca ptr, align 8
  %8 = alloca i32, align 4
  %9 = alloca ptr, align 8
  %10 = alloca i32, align 4
  %11 = alloca i8, align 1
  %12 = alloca i8, align 1
  %13 = alloca i16, align 2
  %14 = alloca i16, align 2
  %15 = alloca i16, align 2
  %16 = alloca i16, align 2
  %17 = alloca i32, align 4
  store ptr %0, ptr %5, align 8
  store ptr %1, ptr %6, align 8
  store ptr %2, ptr %7, align 8
  store i32 %3, ptr %8, align 4
  call void @llvm.lifetime.start.p0(i64 8, ptr %9) #5
  store ptr null, ptr %9, align 8
  call void @llvm.lifetime.start.p0(i64 4, ptr %10) #5
  call void @llvm.lifetime.start.p0(i64 1, ptr %11) #5
  call void @llvm.lifetime.start.p0(i64 1, ptr %12) #5
  call void @llvm.lifetime.start.p0(i64 2, ptr %13) #5
  call void @llvm.lifetime.start.p0(i64 2, ptr %14) #5
  call void @llvm.lifetime.start.p0(i64 2, ptr %15) #5
  call void @llvm.lifetime.start.p0(i64 2, ptr %16) #5
  call void @llvm.lifetime.start.p0(i64 4, ptr %17) #5
  %18 = load ptr, ptr %7, align 8
  %19 = load i32, ptr @hf_btbnep_control_type, align 4
  %20 = load ptr, ptr %5, align 8
  %21 = load i32, ptr %8, align 4
  %22 = call ptr @proto_tree_add_item(ptr noundef %18, i32 noundef %19, ptr noundef %20, i32 noundef %21, i32 noundef 1, i32 noundef 0)
  %23 = load ptr, ptr %5, align 8
  %24 = load i32, ptr %8, align 4
  %25 = call zeroext i8 @tvb_get_uint8(ptr noundef %23, i32 noundef %24)
  %26 = zext i8 %25 to i32
  store i32 %26, ptr %10, align 4
  %27 = load i32, ptr %8, align 4
  %28 = add i32 %27, 1
  store i32 %28, ptr %8, align 4
  %29 = load ptr, ptr %6, align 8
  %30 = getelementptr inbounds nuw %struct._packet_info, ptr %29, i32 0, i32 1
  %31 = load ptr, ptr %30, align 8
  %32 = load i32, ptr %10, align 4
  %33 = call ptr @val_to_str_const(i32 noundef %32, ptr noundef @control_type_vals, ptr noundef @.str.114)
  call void (ptr, i32, ptr, ...) @col_append_fstr(ptr noundef %31, i32 noundef 25, ptr noundef @.str.119, ptr noundef %33)
  %34 = load i32, ptr %10, align 4
  switch i32 %34, label %243 [
    i32 0, label %35
    i32 1, label %52
    i32 2, label %108
    i32 3, label %125
    i32 4, label %167
    i32 5, label %184
    i32 6, label %226
  ]

35:                                               ; preds = %4
  %36 = load ptr, ptr %7, align 8
  %37 = load i32, ptr @hf_btbnep_unknown_control_type, align 4
  %38 = load ptr, ptr %5, align 8
  %39 = load i32, ptr %8, align 4
  %40 = call ptr @proto_tree_add_item(ptr noundef %36, i32 noundef %37, ptr noundef %38, i32 noundef %39, i32 noundef 1, i32 noundef 0)
  %41 = load ptr, ptr %5, align 8
  %42 = load i32, ptr %8, align 4
  %43 = call zeroext i8 @tvb_get_uint8(ptr noundef %41, i32 noundef %42)
  store i8 %43, ptr %11, align 1
  %44 = load i32, ptr %8, align 4
  %45 = add i32 %44, 1
  store i32 %45, ptr %8, align 4
  %46 = load ptr, ptr %6, align 8
  %47 = getelementptr inbounds nuw %struct._packet_info, ptr %46, i32 0, i32 1
  %48 = load ptr, ptr %47, align 8
  %49 = load i8, ptr %11, align 1
  %50 = zext i8 %49 to i32
  %51 = call ptr @val_to_str_const(i32 noundef %50, ptr noundef @control_type_vals, ptr noundef @.str.114)
  call void (ptr, i32, ptr, ...) @col_append_fstr(ptr noundef %48, i32 noundef 25, ptr noundef @.str.120, ptr noundef %51)
  br label %243

52:                                               ; preds = %4
  %53 = load ptr, ptr %7, align 8
  %54 = load i32, ptr @hf_btbnep_uuid_size, align 4
  %55 = load ptr, ptr %5, align 8
  %56 = load i32, ptr %8, align 4
  %57 = call ptr @proto_tree_add_item(ptr noundef %53, i32 noundef %54, ptr noundef %55, i32 noundef %56, i32 noundef 1, i32 noundef 0)
  %58 = load ptr, ptr %5, align 8
  %59 = load i32, ptr %8, align 4
  %60 = call zeroext i8 @tvb_get_uint8(ptr noundef %58, i32 noundef %59)
  store i8 %60, ptr %12, align 1
  %61 = load i32, ptr %8, align 4
  %62 = add i32 %61, 1
  store i32 %62, ptr %8, align 4
  %63 = load ptr, ptr %7, align 8
  %64 = load i32, ptr @hf_btbnep_destination_service_uuid, align 4
  %65 = load ptr, ptr %5, align 8
  %66 = load i32, ptr %8, align 4
  %67 = load i8, ptr %12, align 1
  %68 = zext i8 %67 to i32
  %69 = call ptr @proto_tree_add_item(ptr noundef %63, i32 noundef %64, ptr noundef %65, i32 noundef %66, i32 noundef %68, i32 noundef 0)
  store ptr %69, ptr %9, align 8
  %70 = load ptr, ptr %5, align 8
  %71 = load i32, ptr %8, align 4
  %72 = call zeroext i16 @tvb_get_ntohs(ptr noundef %70, i32 noundef %71)
  store i16 %72, ptr %13, align 2
  %73 = load ptr, ptr %9, align 8
  %74 = load i16, ptr %13, align 2
  %75 = zext i16 %74 to i32
  %76 = call ptr @val_to_str_ext_const(i32 noundef %75, ptr noundef @bluetooth_uuid_vals_ext, ptr noundef @.str.122)
  call void (ptr, ptr, ...) @proto_item_append_text(ptr noundef %73, ptr noundef @.str.121, ptr noundef %76)
  %77 = load i8, ptr %12, align 1
  %78 = zext i8 %77 to i32
  %79 = load i32, ptr %8, align 4
  %80 = add i32 %79, %78
  store i32 %80, ptr %8, align 4
  %81 = load ptr, ptr %7, align 8
  %82 = load i32, ptr @hf_btbnep_source_service_uuid, align 4
  %83 = load ptr, ptr %5, align 8
  %84 = load i32, ptr %8, align 4
  %85 = load i8, ptr %12, align 1
  %86 = zext i8 %85 to i32
  %87 = call ptr @proto_tree_add_item(ptr noundef %81, i32 noundef %82, ptr noundef %83, i32 noundef %84, i32 noundef %86, i32 noundef 0)
  store ptr %87, ptr %9, align 8
  %88 = load ptr, ptr %5, align 8
  %89 = load i32, ptr %8, align 4
  %90 = call zeroext i16 @tvb_get_ntohs(ptr noundef %88, i32 noundef %89)
  store i16 %90, ptr %14, align 2
  %91 = load ptr, ptr %9, align 8
  %92 = load i16, ptr %14, align 2
  %93 = zext i16 %92 to i32
  %94 = call ptr @val_to_str_ext_const(i32 noundef %93, ptr noundef @bluetooth_uuid_vals_ext, ptr noundef @.str.122)
  call void (ptr, ptr, ...) @proto_item_append_text(ptr noundef %91, ptr noundef @.str.121, ptr noundef %94)
  %95 = load i8, ptr %12, align 1
  %96 = zext i8 %95 to i32
  %97 = load i32, ptr %8, align 4
  %98 = add i32 %97, %96
  store i32 %98, ptr %8, align 4
  %99 = load ptr, ptr %6, align 8
  %100 = getelementptr inbounds nuw %struct._packet_info, ptr %99, i32 0, i32 1
  %101 = load ptr, ptr %100, align 8
  %102 = load i16, ptr %13, align 2
  %103 = zext i16 %102 to i32
  %104 = call ptr @val_to_str_ext_const(i32 noundef %103, ptr noundef @bluetooth_uuid_vals_ext, ptr noundef @.str.122)
  %105 = load i16, ptr %14, align 2
  %106 = zext i16 %105 to i32
  %107 = call ptr @val_to_str_ext_const(i32 noundef %106, ptr noundef @bluetooth_uuid_vals_ext, ptr noundef @.str.122)
  call void (ptr, i32, ptr, ...) @col_append_fstr(ptr noundef %101, i32 noundef 25, ptr noundef @.str.123, ptr noundef %104, ptr noundef %107)
  br label %243

108:                                              ; preds = %4
  %109 = load ptr, ptr %7, align 8
  %110 = load i32, ptr @hf_btbnep_setup_connection_response_message, align 4
  %111 = load ptr, ptr %5, align 8
  %112 = load i32, ptr %8, align 4
  %113 = call ptr @proto_tree_add_item(ptr noundef %109, i32 noundef %110, ptr noundef %111, i32 noundef %112, i32 noundef 2, i32 noundef 0)
  %114 = load ptr, ptr %5, align 8
  %115 = load i32, ptr %8, align 4
  %116 = call zeroext i16 @tvb_get_ntohs(ptr noundef %114, i32 noundef %115)
  store i16 %116, ptr %15, align 2
  %117 = load i32, ptr %8, align 4
  %118 = add i32 %117, 2
  store i32 %118, ptr %8, align 4
  %119 = load ptr, ptr %6, align 8
  %120 = getelementptr inbounds nuw %struct._packet_info, ptr %119, i32 0, i32 1
  %121 = load ptr, ptr %120, align 8
  %122 = load i16, ptr %15, align 2
  %123 = zext i16 %122 to i32
  %124 = call ptr @val_to_str_const(i32 noundef %123, ptr noundef @setup_connection_response_message_vals, ptr noundef @.str.124)
  call void (ptr, i32, ptr, ...) @col_append_fstr(ptr noundef %121, i32 noundef 25, ptr noundef @.str.119, ptr noundef %124)
  br label %243

125:                                              ; preds = %4
  %126 = load ptr, ptr %7, align 8
  %127 = load i32, ptr @hf_btbnep_list_length, align 4
  %128 = load ptr, ptr %5, align 8
  %129 = load i32, ptr %8, align 4
  %130 = call ptr @proto_tree_add_item(ptr noundef %126, i32 noundef %127, ptr noundef %128, i32 noundef %129, i32 noundef 2, i32 noundef 0)
  %131 = load ptr, ptr %5, align 8
  %132 = load i32, ptr %8, align 4
  %133 = call zeroext i16 @tvb_get_ntohs(ptr noundef %131, i32 noundef %132)
  store i16 %133, ptr %16, align 2
  %134 = load i32, ptr %8, align 4
  %135 = add i32 %134, 2
  store i32 %135, ptr %8, align 4
  store i32 0, ptr %17, align 4
  br label %136

136:                                              ; preds = %163, %125
  %137 = load i32, ptr %17, align 4
  %138 = add i32 %137, 4
  %139 = load i32, ptr %17, align 4
  %140 = icmp ugt i32 %138, %139
  br i1 %140, label %141, label %146

141:                                              ; preds = %136
  %142 = load i32, ptr %17, align 4
  %143 = load i16, ptr %16, align 2
  %144 = zext i16 %143 to i32
  %145 = icmp ult i32 %142, %144
  br label %146

146:                                              ; preds = %141, %136
  %147 = phi i1 [ false, %136 ], [ %145, %141 ]
  br i1 %147, label %148, label %166

148:                                              ; preds = %146
  %149 = load ptr, ptr %7, align 8
  %150 = load i32, ptr @hf_btbnep_network_type_start, align 4
  %151 = load ptr, ptr %5, align 8
  %152 = load i32, ptr %8, align 4
  %153 = call ptr @proto_tree_add_item(ptr noundef %149, i32 noundef %150, ptr noundef %151, i32 noundef %152, i32 noundef 2, i32 noundef 0)
  %154 = load i32, ptr %8, align 4
  %155 = add i32 %154, 2
  store i32 %155, ptr %8, align 4
  %156 = load ptr, ptr %7, align 8
  %157 = load i32, ptr @hf_btbnep_network_type_end, align 4
  %158 = load ptr, ptr %5, align 8
  %159 = load i32, ptr %8, align 4
  %160 = call ptr @proto_tree_add_item(ptr noundef %156, i32 noundef %157, ptr noundef %158, i32 noundef %159, i32 noundef 2, i32 noundef 0)
  %161 = load i32, ptr %8, align 4
  %162 = add i32 %161, 2
  store i32 %162, ptr %8, align 4
  br label %163

163:                                              ; preds = %148
  %164 = load i32, ptr %17, align 4
  %165 = add i32 %164, 4
  store i32 %165, ptr %17, align 4
  br label %136, !llvm.loop !8

166:                                              ; preds = %146
  br label %243

167:                                              ; preds = %4
  %168 = load ptr, ptr %7, align 8
  %169 = load i32, ptr @hf_btbnep_filter_net_type_response_message, align 4
  %170 = load ptr, ptr %5, align 8
  %171 = load i32, ptr %8, align 4
  %172 = call ptr @proto_tree_add_item(ptr noundef %168, i32 noundef %169, ptr noundef %170, i32 noundef %171, i32 noundef 2, i32 noundef 0)
  %173 = load ptr, ptr %5, align 8
  %174 = load i32, ptr %8, align 4
  %175 = call zeroext i16 @tvb_get_ntohs(ptr noundef %173, i32 noundef %174)
  store i16 %175, ptr %15, align 2
  %176 = load i32, ptr %8, align 4
  %177 = add i32 %176, 2
  store i32 %177, ptr %8, align 4
  %178 = load ptr, ptr %6, align 8
  %179 = getelementptr inbounds nuw %struct._packet_info, ptr %178, i32 0, i32 1
  %180 = load ptr, ptr %179, align 8
  %181 = load i16, ptr %15, align 2
  %182 = zext i16 %181 to i32
  %183 = call ptr @val_to_str_const(i32 noundef %182, ptr noundef @filter_net_type_response_message_vals, ptr noundef @.str.124)
  call void (ptr, i32, ptr, ...) @col_append_fstr(ptr noundef %180, i32 noundef 25, ptr noundef @.str.119, ptr noundef %183)
  br label %243

184:                                              ; preds = %4
  %185 = load ptr, ptr %7, align 8
  %186 = load i32, ptr @hf_btbnep_list_length, align 4
  %187 = load ptr, ptr %5, align 8
  %188 = load i32, ptr %8, align 4
  %189 = call ptr @proto_tree_add_item(ptr noundef %185, i32 noundef %186, ptr noundef %187, i32 noundef %188, i32 noundef 2, i32 noundef 0)
  %190 = load ptr, ptr %5, align 8
  %191 = load i32, ptr %8, align 4
  %192 = call zeroext i16 @tvb_get_ntohs(ptr noundef %190, i32 noundef %191)
  store i16 %192, ptr %16, align 2
  %193 = load i32, ptr %8, align 4
  %194 = add i32 %193, 2
  store i32 %194, ptr %8, align 4
  store i32 0, ptr %17, align 4
  br label %195

195:                                              ; preds = %222, %184
  %196 = load i32, ptr %17, align 4
  %197 = add i32 %196, 12
  %198 = load i32, ptr %17, align 4
  %199 = icmp ugt i32 %197, %198
  br i1 %199, label %200, label %205

200:                                              ; preds = %195
  %201 = load i32, ptr %17, align 4
  %202 = load i16, ptr %16, align 2
  %203 = zext i16 %202 to i32
  %204 = icmp ult i32 %201, %203
  br label %205

205:                                              ; preds = %200, %195
  %206 = phi i1 [ false, %195 ], [ %204, %200 ]
  br i1 %206, label %207, label %225

207:                                              ; preds = %205
  %208 = load ptr, ptr %7, align 8
  %209 = load i32, ptr @hf_btbnep_multicast_address_start, align 4
  %210 = load ptr, ptr %5, align 8
  %211 = load i32, ptr %8, align 4
  %212 = call ptr @proto_tree_add_item(ptr noundef %208, i32 noundef %209, ptr noundef %210, i32 noundef %211, i32 noundef 6, i32 noundef 0)
  %213 = load i32, ptr %8, align 4
  %214 = add i32 %213, 6
  store i32 %214, ptr %8, align 4
  %215 = load ptr, ptr %7, align 8
  %216 = load i32, ptr @hf_btbnep_multicast_address_end, align 4
  %217 = load ptr, ptr %5, align 8
  %218 = load i32, ptr %8, align 4
  %219 = call ptr @proto_tree_add_item(ptr noundef %215, i32 noundef %216, ptr noundef %217, i32 noundef %218, i32 noundef 6, i32 noundef 0)
  %220 = load i32, ptr %8, align 4
  %221 = add i32 %220, 6
  store i32 %221, ptr %8, align 4
  br label %222

222:                                              ; preds = %207
  %223 = load i32, ptr %17, align 4
  %224 = add i32 %223, 12
  store i32 %224, ptr %17, align 4
  br label %195, !llvm.loop !10

225:                                              ; preds = %205
  br label %243

226:                                              ; preds = %4
  %227 = load ptr, ptr %7, align 8
  %228 = load i32, ptr @hf_btbnep_filter_multi_addr_response_message, align 4
  %229 = load ptr, ptr %5, align 8
  %230 = load i32, ptr %8, align 4
  %231 = call ptr @proto_tree_add_item(ptr noundef %227, i32 noundef %228, ptr noundef %229, i32 noundef %230, i32 noundef 2, i32 noundef 0)
  %232 = load ptr, ptr %5, align 8
  %233 = load i32, ptr %8, align 4
  %234 = call zeroext i16 @tvb_get_ntohs(ptr noundef %232, i32 noundef %233)
  store i16 %234, ptr %15, align 2
  %235 = load i32, ptr %8, align 4
  %236 = add i32 %235, 2
  store i32 %236, ptr %8, align 4
  %237 = load ptr, ptr %6, align 8
  %238 = getelementptr inbounds nuw %struct._packet_info, ptr %237, i32 0, i32 1
  %239 = load ptr, ptr %238, align 8
  %240 = load i16, ptr %15, align 2
  %241 = zext i16 %240 to i32
  %242 = call ptr @val_to_str_const(i32 noundef %241, ptr noundef @filter_multi_addr_response_message_vals, ptr noundef @.str.124)
  call void (ptr, i32, ptr, ...) @col_append_fstr(ptr noundef %239, i32 noundef 25, ptr noundef @.str.119, ptr noundef %242)
  br label %243

243:                                              ; preds = %4, %226, %225, %167, %166, %108, %52, %35
  %244 = load i32, ptr %8, align 4
  call void @llvm.lifetime.end.p0(i64 4, ptr %17) #5
  call void @llvm.lifetime.end.p0(i64 2, ptr %16) #5
  call void @llvm.lifetime.end.p0(i64 2, ptr %15) #5
  call void @llvm.lifetime.end.p0(i64 2, ptr %14) #5
  call void @llvm.lifetime.end.p0(i64 2, ptr %13) #5
  call void @llvm.lifetime.end.p0(i64 1, ptr %12) #5
  call void @llvm.lifetime.end.p0(i64 1, ptr %11) #5
  call void @llvm.lifetime.end.p0(i64 4, ptr %10) #5
  call void @llvm.lifetime.end.p0(i64 8, ptr %9) #5
  ret i32 %244
}