; Function Attrs: null_pointer_is_valid sspstrong uwtable
define internal fastcc noundef i32 @dissect_control(ptr noundef %0, ptr noundef readonly captures(none) %1, ptr noundef %2, i32 noundef %3) unnamed_addr #0 {
  %5 = load i32, ptr @hf_btbnep_control_type, align 4
  %6 = tail call ptr @proto_tree_add_item(ptr noundef %2, i32 noundef %5, ptr noundef %0, i32 noundef %3, i32 noundef 1, i32 noundef 0)
  %7 = tail call zeroext i8 @tvb_get_uint8(ptr noundef %0, i32 noundef %3)
  %8 = zext i8 %7 to i32
  %9 = add i32 %3, 1
  %10 = getelementptr inbounds nuw i8, ptr %1, i64 8
  %11 = load ptr, ptr %10, align 8
  %12 = tail call ptr @val_to_str_const(i32 noundef %8, ptr noundef nonnull @control_type_vals, ptr noundef nonnull @.str.114)
  tail call void (ptr, i32, ptr, ...) @col_append_fstr(ptr noundef %11, i32 noundef 25, ptr noundef nonnull @.str.119, ptr noundef %12)
  switch i8 %7, label %.loopexit [
    i8 0, label %13
    i8 1, label %21
    i8 2, label %42
    i8 3, label %50
    i8 4, label %64
    i8 5, label %72
    i8 6, label %86
  ]

13:                                               ; preds = %4
  %14 = load i32, ptr @hf_btbnep_unknown_control_type, align 4
  %15 = tail call ptr @proto_tree_add_item(ptr noundef %2, i32 noundef %14, ptr noundef %0, i32 noundef %9, i32 noundef 1, i32 noundef 0)
  %16 = tail call zeroext i8 @tvb_get_uint8(ptr noundef %0, i32 noundef %9)
  %17 = add i32 %3, 2
  %18 = load ptr, ptr %10, align 8
  %19 = zext i8 %16 to i32
  %20 = tail call ptr @val_to_str_const(i32 noundef %19, ptr noundef nonnull @control_type_vals, ptr noundef nonnull @.str.114)
  tail call void (ptr, i32, ptr, ...) @col_append_fstr(ptr noundef %18, i32 noundef 25, ptr noundef nonnull @.str.120, ptr noundef %20)
  br label %.loopexit

21:                                               ; preds = %4
  %22 = load i32, ptr @hf_btbnep_uuid_size, align 4
  %23 = tail call ptr @proto_tree_add_item(ptr noundef %2, i32 noundef %22, ptr noundef %0, i32 noundef %9, i32 noundef 1, i32 noundef 0)
  %24 = tail call zeroext i8 @tvb_get_uint8(ptr noundef %0, i32 noundef %9)
  %25 = add i32 %3, 2
  %26 = load i32, ptr @hf_btbnep_destination_service_uuid, align 4
  %27 = zext i8 %24 to i32
  %28 = tail call ptr @proto_tree_add_item(ptr noundef %2, i32 noundef %26, ptr noundef %0, i32 noundef %25, i32 noundef %27, i32 noundef 0)
  %29 = tail call zeroext i16 @tvb_get_ntohs(ptr noundef %0, i32 noundef %25)
  %30 = zext i16 %29 to i32
  %31 = tail call ptr @val_to_str_ext_const(i32 noundef %30, ptr noundef nonnull @bluetooth_uuid_vals_ext, ptr noundef nonnull @.str.122)
  tail call void (ptr, ptr, ...) @proto_item_append_text(ptr noundef %28, ptr noundef nonnull @.str.121, ptr noundef %31)
  %32 = add i32 %25, %27
  %33 = load i32, ptr @hf_btbnep_source_service_uuid, align 4
  %34 = tail call ptr @proto_tree_add_item(ptr noundef %2, i32 noundef %33, ptr noundef %0, i32 noundef %32, i32 noundef %27, i32 noundef 0)
  %35 = tail call zeroext i16 @tvb_get_ntohs(ptr noundef %0, i32 noundef %32)
  %36 = zext i16 %35 to i32
  %37 = tail call ptr @val_to_str_ext_const(i32 noundef %36, ptr noundef nonnull @bluetooth_uuid_vals_ext, ptr noundef nonnull @.str.122)
  tail call void (ptr, ptr, ...) @proto_item_append_text(ptr noundef %34, ptr noundef nonnull @.str.121, ptr noundef %37)
  %38 = add i32 %32, %27
  %39 = load ptr, ptr %10, align 8
  %40 = tail call ptr @val_to_str_ext_const(i32 noundef %30, ptr noundef nonnull @bluetooth_uuid_vals_ext, ptr noundef nonnull @.str.122)
  %41 = tail call ptr @val_to_str_ext_const(i32 noundef %36, ptr noundef nonnull @bluetooth_uuid_vals_ext, ptr noundef nonnull @.str.122)
  tail call void (ptr, i32, ptr, ...) @col_append_fstr(ptr noundef %39, i32 noundef 25, ptr noundef nonnull @.str.123, ptr noundef %40, ptr noundef %41)
  br label %.loopexit

42:                                               ; preds = %4
  %43 = load i32, ptr @hf_btbnep_setup_connection_response_message, align 4
  %44 = tail call ptr @proto_tree_add_item(ptr noundef %2, i32 noundef %43, ptr noundef %0, i32 noundef %9, i32 noundef 2, i32 noundef 0)
  %45 = tail call zeroext i16 @tvb_get_ntohs(ptr noundef %0, i32 noundef %9)
  %46 = add i32 %3, 3
  %47 = load ptr, ptr %10, align 8
  %48 = zext i16 %45 to i32
  %49 = tail call ptr @val_to_str_const(i32 noundef %48, ptr noundef nonnull @setup_connection_response_message_vals, ptr noundef nonnull @.str.124)
  tail call void (ptr, i32, ptr, ...) @col_append_fstr(ptr noundef %47, i32 noundef 25, ptr noundef nonnull @.str.119, ptr noundef %49)
  br label %.loopexit

50:                                               ; preds = %4
  %51 = load i32, ptr @hf_btbnep_list_length, align 4
  %52 = tail call ptr @proto_tree_add_item(ptr noundef %2, i32 noundef %51, ptr noundef %0, i32 noundef %9, i32 noundef 2, i32 noundef 0)
  %53 = tail call zeroext i16 @tvb_get_ntohs(ptr noundef %0, i32 noundef %9)
  %54 = add i32 %3, 3
  %55 = zext i16 %53 to i32
  %.not119 = icmp eq i16 %53, 0
  br i1 %.not119, label %.loopexit, label %.lr.ph117

.lr.ph117:                                        ; preds = %50, %.lr.ph117
  %.0116 = phi i32 [ %56, %.lr.ph117 ], [ 0, %50 ]
  %.1109115 = phi i32 [ %62, %.lr.ph117 ], [ %54, %50 ]
  %56 = add nuw nsw i32 %.0116, 4
  %57 = load i32, ptr @hf_btbnep_network_type_start, align 4
  %58 = tail call ptr @proto_tree_add_item(ptr noundef %2, i32 noundef %57, ptr noundef %0, i32 noundef %.1109115, i32 noundef 2, i32 noundef 0)
  %59 = add i32 %.1109115, 2
  %60 = load i32, ptr @hf_btbnep_network_type_end, align 4
  %61 = tail call ptr @proto_tree_add_item(ptr noundef %2, i32 noundef %60, ptr noundef %0, i32 noundef %59, i32 noundef 2, i32 noundef 0)
  %62 = add i32 %.1109115, 4
  %63 = icmp samesign ult i32 %56, %55
  br i1 %63, label %.lr.ph117, label %.loopexit, !llvm.loop !8

64:                                               ; preds = %4
  %65 = load i32, ptr @hf_btbnep_filter_net_type_response_message, align 4
  %66 = tail call ptr @proto_tree_add_item(ptr noundef %2, i32 noundef %65, ptr noundef %0, i32 noundef %9, i32 noundef 2, i32 noundef 0)
  %67 = tail call zeroext i16 @tvb_get_ntohs(ptr noundef %0, i32 noundef %9)
  %68 = add i32 %3, 3
  %69 = load ptr, ptr %10, align 8
  %70 = zext i16 %67 to i32
  %71 = tail call ptr @val_to_str_const(i32 noundef %70, ptr noundef nonnull @filter_net_type_response_message_vals, ptr noundef nonnull @.str.124)
  tail call void (ptr, i32, ptr, ...) @col_append_fstr(ptr noundef %69, i32 noundef 25, ptr noundef nonnull @.str.119, ptr noundef %71)
  br label %.loopexit

72:                                               ; preds = %4
  %73 = load i32, ptr @hf_btbnep_list_length, align 4
  %74 = tail call ptr @proto_tree_add_item(ptr noundef %2, i32 noundef %73, ptr noundef %0, i32 noundef %9, i32 noundef 2, i32 noundef 0)
  %75 = tail call zeroext i16 @tvb_get_ntohs(ptr noundef %0, i32 noundef %9)
  %76 = add i32 %3, 3
  %77 = zext i16 %75 to i32
  %.not = icmp eq i16 %75, 0
  br i1 %.not, label %.loopexit, label %.lr.ph

.lr.ph:                                           ; preds = %72, %.lr.ph
  %.1114 = phi i32 [ %78, %.lr.ph ], [ 0, %72 ]
  %.2113 = phi i32 [ %84, %.lr.ph ], [ %76, %72 ]
  %78 = add nuw nsw i32 %.1114, 12
  %79 = load i32, ptr @hf_btbnep_multicast_address_start, align 4
  %80 = tail call ptr @proto_tree_add_item(ptr noundef %2, i32 noundef %79, ptr noundef %0, i32 noundef %.2113, i32 noundef 6, i32 noundef 0)
  %81 = add i32 %.2113, 6
  %82 = load i32, ptr @hf_btbnep_multicast_address_end, align 4
  %83 = tail call ptr @proto_tree_add_item(ptr noundef %2, i32 noundef %82, ptr noundef %0, i32 noundef %81, i32 noundef 6, i32 noundef 0)
  %84 = add i32 %.2113, 12
  %85 = icmp samesign ult i32 %78, %77
  br i1 %85, label %.lr.ph, label %.loopexit, !llvm.loop !10

86:                                               ; preds = %4
  %87 = load i32, ptr @hf_btbnep_filter_multi_addr_response_message, align 4
  %88 = tail call ptr @proto_tree_add_item(ptr noundef %2, i32 noundef %87, ptr noundef %0, i32 noundef %9, i32 noundef 2, i32 noundef 0)
  %89 = tail call zeroext i16 @tvb_get_ntohs(ptr noundef %0, i32 noundef %9)
  %90 = add i32 %3, 3
  %91 = load ptr, ptr %10, align 8
  %92 = zext i16 %89 to i32
  %93 = tail call ptr @val_to_str_const(i32 noundef %92, ptr noundef nonnull @filter_multi_addr_response_message_vals, ptr noundef nonnull @.str.124)
  tail call void (ptr, i32, ptr, ...) @col_append_fstr(ptr noundef %91, i32 noundef 25, ptr noundef nonnull @.str.119, ptr noundef %93)
  br label %.loopexit

.loopexit:                                        ; preds = %.lr.ph, %.lr.ph117, %72, %50, %86, %64, %42, %21, %13, %4
  %.0108 = phi i32 [ %9, %4 ], [ %90, %86 ], [ %68, %64 ], [ %46, %42 ], [ %38, %21 ], [ %17, %13 ], [ %54, %50 ], [ %76, %72 ], [ %62, %.lr.ph117 ], [ %84, %.lr.ph ]
  ret i32 %.0108
}